target datalayout = "e-m:e-p270:32:32-p271:32:32-p272:64:64-i64:64-i128:128-f80:128-n8:16:32:64-S128"
target triple = "x86_64-pc-linux-gnu"

; Function Attrs: nounwind uwtable
define hidden void @ScalePlaneVertical(i32 noundef %0, i32 noundef %1, i32 noundef %2, i32 noundef %3, i32 noundef %4, ptr noundef %5, ptr noundef %6, i32 noundef %7, i32 noundef %8, i32 noundef %9, i32 noundef %10, i32 noundef %11) #0 {
  %13 = alloca i32, align 4
  %14 = alloca i32, align 4
  %15 = alloca i32, align 4
  %16 = alloca i32, align 4
  %17 = alloca i32, align 4
  %18 = alloca ptr, align 8
  %19 = alloca ptr, align 8
  %20 = alloca i32, align 4
  %21 = alloca i32, align 4
  %22 = alloca i32, align 4
  %23 = alloca i32, align 4
  %24 = alloca i32, align 4
  %25 = alloca i32, align 4
  %26 = alloca ptr, align 8
  %27 = alloca i32, align 4
  %28 = alloca i32, align 4
  %29 = alloca i32, align 4
  %30 = alloca i32, align 4
  store i32 %0, ptr %13, align 4
  store i32 %1, ptr %14, align 4
  store i32 %2, ptr %15, align 4
  store i32 %3, ptr %16, align 4
  store i32 %4, ptr %17, align 4
  store ptr %5, ptr %18, align 8
  store ptr %6, ptr %19, align 8
  store i32 %7, ptr %20, align 4
  store i32 %8, ptr %21, align 4
  store i32 %9, ptr %22, align 4
  store i32 %10, ptr %23, align 4
  store i32 %11, ptr %24, align 4
  %31 = load i32, ptr %14, align 4
  %32 = load i32, ptr %23, align 4
  %33 = mul nsw i32 %31, %32
  store i32 %33, ptr %25, align 4
  store ptr @InterpolateRow_C, ptr %26, align 8
  %34 = load i32, ptr %13, align 4
  %35 = icmp sgt i32 %34, 1
  br i1 %35, label %36, label %41

36:                                               ; preds = %12
  %37 = load i32, ptr %13, align 4
  %38 = sub nsw i32 %37, 1
  %39 = shl i32 %38, 16
  %40 = sub nsw i32 %39, 1
  br label %42

41:                                               ; preds = %12
  br label %42

42:                                               ; preds = %41, %36
  %43 = phi i32 [ %40, %36 ], [ 0, %41 ]
  store i32 %43, ptr %27, align 4
  %44 = load i32, ptr %20, align 4
  %45 = ashr i32 %44, 16
  %46 = load i32, ptr %23, align 4
  %47 = mul nsw i32 %45, %46
  %48 = load ptr, ptr %18, align 8
  %49 = sext i32 %47 to i64
  %50 = getelementptr inbounds i8, ptr %48, i64 %49
  store ptr %50, ptr %18, align 8
  store i32 0, ptr %28, align 4
  br label %51

51:                                               ; preds = %92, %42
  %52 = load i32, ptr %28, align 4
  %53 = load i32, ptr %15, align 4
  %54 = icmp slt i32 %52, %53
  br i1 %54, label %55, label %95

55:                                               ; preds = %51
  %56 = load i32, ptr %21, align 4
  %57 = load i32, ptr %27, align 4
  %58 = icmp sgt i32 %56, %57
  br i1 %58, label %59, label %61

59:                                               ; preds = %55
  %60 = load i32, ptr %27, align 4
  store i32 %60, ptr %21, align 4
  br label %61

61:                                               ; preds = %59, %55
  %62 = load i32, ptr %21, align 4
  %63 = ashr i32 %62, 16
  store i32 %63, ptr %29, align 4
  %64 = load i32, ptr %24, align 4
  %65 = icmp ne i32 %64, 0
  br i1 %65, label %66, label %70

66:                                               ; preds = %61
  %67 = load i32, ptr %21, align 4
  %68 = ashr i32 %67, 8
  %69 = and i32 %68, 255
  br label %71

70:                                               ; preds = %61
  br label %71

71:                                               ; preds = %70, %66
  %72 = phi i32 [ %69, %66 ], [ 0, %70 ]
  store i32 %72, ptr %30, align 4
  %73 = load ptr, ptr %26, align 8
  %74 = load ptr, ptr %19, align 8
  %75 = load ptr, ptr %18, align 8
  %76 = load i32, ptr %29, align 4
  %77 = load i32, ptr %16, align 4
  %78 = mul nsw i32 %76, %77
  %79 = sext i32 %78 to i64
  %80 = getelementptr inbounds i8, ptr %75, i64 %79
  %81 = load i32, ptr %16, align 4
  %82 = sext i32 %81 to i64
  %83 = load i32, ptr %25, align 4
  %84 = load i32, ptr %30, align 4
  call void %73(ptr noundef %74, ptr noundef %80, i64 noundef %82, i32 noundef %83, i32 noundef %84)
  %85 = load i32, ptr %17, align 4
  %86 = load ptr, ptr %19, align 8
  %87 = sext i32 %85 to i64
  %88 = getelementptr inbounds i8, ptr %86, i64 %87
  store ptr %88, ptr %19, align 8
  %89 = load i32, ptr %22, align 4
  %90 = load i32, ptr %21, align 4
  %91 = add nsw i32 %90, %89
  store i32 %91, ptr %21, align 4
  br label %92

92:                                               ; preds = %71
  %93 = load i32, ptr %28, align 4
  %94 = add nsw i32 %93, 1
  store i32 %94, ptr %28, align 4
  br label %51, !llvm.loop !19

95:                                               ; preds = %51
  ret void
}