; Function Attrs: nounwind uwtable
define hidden void @ScalePlaneVertical(i32 noundef %0, i32 noundef %1, i32 noundef %2, i32 noundef %3, i32 noundef %4, ptr noundef %5, ptr noundef %6, i32 noundef %7, i32 noundef %8, i32 noundef %9, i32 noundef %10, i32 noundef %11) local_unnamed_addr #1 {
  %13 = mul nsw i32 %10, %1
  %14 = icmp sgt i32 %0, 1
  %15 = shl i32 %0, 16
  %16 = add i32 %15, -65537
  %17 = select i1 %14, i32 %16, i32 0
  %18 = ashr i32 %7, 16
  %19 = mul nsw i32 %10, %18
  %20 = sext i32 %19 to i64
  %21 = getelementptr inbounds i8, ptr %5, i64 %20
  %22 = icmp sgt i32 %2, 0
  br i1 %22, label %.lr.ph, label %._crit_edge

.lr.ph:                                           ; preds = %12
  %.not = icmp eq i32 %11, 0
  %23 = sext i32 %3 to i64
  %24 = sext i32 %4 to i64
  br i1 %.not, label %.lr.ph.split.us, label %.lr.ph.split

.lr.ph.split.us:                                  ; preds = %.lr.ph, %.lr.ph.split.us
  %.032.us = phi ptr [ %29, %.lr.ph.split.us ], [ %6, %.lr.ph ]
  %.02731.us = phi i32 [ %31, %.lr.ph.split.us ], [ 0, %.lr.ph ]
  %.02830.us = phi i32 [ %30, %.lr.ph.split.us ], [ %8, %.lr.ph ]
  %spec.select.us = tail call i32 @llvm.smin.i32(i32 %.02830.us, i32 %17)
  %25 = ashr i32 %spec.select.us, 16
  %26 = mul nsw i32 %25, %3
  %27 = sext i32 %26 to i64
  %28 = getelementptr inbounds i8, ptr %21, i64 %27
  tail call void @InterpolateRow_C(ptr noundef %.032.us, ptr noundef %28, i64 noundef %23, i32 noundef %13, i32 noundef 0) #6
  %29 = getelementptr inbounds i8, ptr %.032.us, i64 %24
  %30 = add nsw i32 %spec.select.us, %9
  %31 = add nuw nsw i32 %.02731.us, 1
  %exitcond34.not = icmp eq i32 %31, %2
  br i1 %exitcond34.not, label %._crit_edge, label %.lr.ph.split.us, !llvm.loop !19

.lr.ph.split:                                     ; preds = %.lr.ph, %.lr.ph.split
  %.032 = phi ptr [ %38, %.lr.ph.split ], [ %6, %.lr.ph ]
  %.02731 = phi i32 [ %40, %.lr.ph.split ], [ 0, %.lr.ph ]
  %.02830 = phi i32 [ %39, %.lr.ph.split ], [ %8, %.lr.ph ]
  %spec.select = tail call i32 @llvm.smin.i32(i32 %.02830, i32 %17)
  %32 = ashr i32 %spec.select, 16
  %33 = lshr i32 %spec.select, 8
  %34 = and i32 %33, 255
  %35 = mul nsw i32 %32, %3
  %36 = sext i32 %35 to i64
  %37 = getelementptr inbounds i8, ptr %21, i64 %36
  tail call void @InterpolateRow_C(ptr noundef %.032, ptr noundef %37, i64 noundef %23, i32 noundef %13, i32 noundef %34) #6
  %38 = getelementptr inbounds i8, ptr %.032, i64 %24
  %39 = add nsw i32 %spec.select, %9
  %40 = add nuw nsw i32 %.02731, 1
  %exitcond.not = icmp eq i32 %40, %2
  br i1 %exitcond.not, label %._crit_edge, label %.lr.ph.split, !llvm.loop !19

._crit_edge:                                      ; preds = %.lr.ph.split, %.lr.ph.split.us, %12
  ret void
}